target datalayout = "e-m:e-p270:32:32-p271:32:32-p272:64:64-i64:64-i128:128-f80:128-n8:16:32:64-S128"
target triple = "x86_64-pc-linux-gnu"

%struct.ParallelVacuumState = type { ptr, ptr, ptr, i32, ptr, ptr, ptr, ptr, ptr, ptr, i32, i32, i32, ptr, ptr, ptr, ptr, i32 }
%struct.RelationData = type { %struct.RelFileLocator, ptr, i32, i32, i8, i8, i8, i8, i8, i32, i32, i32, i32, ptr, ptr, i32, %struct.LockInfoData, ptr, ptr, ptr, ptr, ptr, i8, ptr, ptr, ptr, ptr, ptr, ptr, i32, ptr, i8, ptr, ptr, i32, i8, i32, ptr, i8, ptr, ptr, ptr, ptr, ptr, ptr, ptr, i32, ptr, ptr, ptr, ptr, ptr, ptr, ptr, ptr, ptr, ptr, ptr, ptr, ptr, ptr, ptr, ptr, ptr, ptr, ptr, i32, i8, ptr }
%struct.RelFileLocator = type { i32, i32, i32 }
%struct.LockInfoData = type { %struct.LockRelId }
%struct.LockRelId = type { i32, i32 }
%struct.PVShared = type { i32, i32, i64, double, i8, i32, i32, %struct.pg_atomic_uint32, %struct.pg_atomic_uint32, %struct.pg_atomic_uint32, i32, i64, %struct.VacDeadItemsInfo }
%struct.pg_atomic_uint32 = type { i32 }
%struct.VacDeadItemsInfo = type { i64, i64 }
%struct.PVIndStats = type { i32, i8, i8, %struct.IndexBulkDeleteResult }
%struct.IndexBulkDeleteResult = type { i32, i8, double, double, i32, i32, i32 }
%struct.FormData_pg_class = type { i32, %struct.nameData, i32, i32, i32, i32, i32, i32, i32, i32, float, i32, i32, i8, i8, i8, i8, i16, i16, i8, i8, i8, i8, i8, i8, i8, i8, i32, i32, i32 }
%struct.nameData = type { [64 x i8] }
%struct.IndexVacuumInfo = type { ptr, ptr, i8, i8, i8, i32, double, ptr }

@.str.3 = private unnamed_addr constant [17 x i8] c"vacuumparallel.c\00", align 1
@.str.9 = private unnamed_addr constant [58 x i8] c"unexpected parallel vacuum index status %d for index \22%s\22\00", align 1
@__func__.parallel_vacuum_process_one_index = private unnamed_addr constant [34 x i8] c"parallel_vacuum_process_one_index\00", align 1

; Function Attrs: nounwind uwtable
define internal void @parallel_vacuum_process_one_index(ptr noundef %0, ptr noundef %1, ptr noundef %2) #0 {
  %4 = alloca ptr, align 8
  %5 = alloca ptr, align 8
  %6 = alloca ptr, align 8
  %7 = alloca ptr, align 8
  %8 = alloca ptr, align 8
  %9 = alloca %struct.IndexVacuumInfo, align 8
  store ptr %0, ptr %4, align 8
  store ptr %1, ptr %5, align 8
  store ptr %2, ptr %6, align 8
  call void @llvm.lifetime.start.p0(i64 8, ptr %7) #9
  store ptr null, ptr %7, align 8
  call void @llvm.lifetime.start.p0(i64 8, ptr %8) #9
  call void @llvm.lifetime.start.p0(i64 40, ptr %9) #9
  %10 = load ptr, ptr %6, align 8
  %11 = getelementptr inbounds nuw %struct.PVIndStats, ptr %10, i32 0, i32 2
  %12 = load i8, ptr %11, align 1, !range !6, !noundef !7
  %13 = trunc i8 %12 to i1
  br i1 %13, label %14, label %17

14:                                               ; preds = %3
  %15 = load ptr, ptr %6, align 8
  %16 = getelementptr inbounds nuw %struct.PVIndStats, ptr %15, i32 0, i32 3
  store ptr %16, ptr %7, align 8
  br label %17

17:                                               ; preds = %14, %3
  %18 = load ptr, ptr %5, align 8
  %19 = getelementptr inbounds nuw %struct.IndexVacuumInfo, ptr %9, i32 0, i32 0
  store ptr %18, ptr %19, align 8
  %20 = load ptr, ptr %4, align 8
  %21 = getelementptr inbounds nuw %struct.ParallelVacuumState, ptr %20, i32 0, i32 1
  %22 = load ptr, ptr %21, align 8
  %23 = getelementptr inbounds nuw %struct.IndexVacuumInfo, ptr %9, i32 0, i32 1
  store ptr %22, ptr %23, align 8
  %24 = getelementptr inbounds nuw %struct.IndexVacuumInfo, ptr %9, i32 0, i32 2
  store i8 0, ptr %24, align 8
  %25 = getelementptr inbounds nuw %struct.IndexVacuumInfo, ptr %9, i32 0, i32 3
  store i8 0, ptr %25, align 1
  %26 = getelementptr inbounds nuw %struct.IndexVacuumInfo, ptr %9, i32 0, i32 5
  store i32 13, ptr %26, align 4
  %27 = load ptr, ptr %4, align 8
  %28 = getelementptr inbounds nuw %struct.ParallelVacuumState, ptr %27, i32 0, i32 4
  %29 = load ptr, ptr %28, align 8
  %30 = getelementptr inbounds nuw %struct.PVShared, ptr %29, i32 0, i32 4
  %31 = load i8, ptr %30, align 8, !range !6, !noundef !7
  %32 = trunc i8 %31 to i1
  %33 = getelementptr inbounds nuw %struct.IndexVacuumInfo, ptr %9, i32 0, i32 4
  %34 = zext i1 %32 to i8
  store i8 %34, ptr %33, align 2
  %35 = load ptr, ptr %4, align 8
  %36 = getelementptr inbounds nuw %struct.ParallelVacuumState, ptr %35, i32 0, i32 4
  %37 = load ptr, ptr %36, align 8
  %38 = getelementptr inbounds nuw %struct.PVShared, ptr %37, i32 0, i32 3
  %39 = load double, ptr %38, align 8
  %40 = getelementptr inbounds nuw %struct.IndexVacuumInfo, ptr %9, i32 0, i32 6
  store double %39, ptr %40, align 8
  %41 = load ptr, ptr %4, align 8
  %42 = getelementptr inbounds nuw %struct.ParallelVacuumState, ptr %41, i32 0, i32 13
  %43 = load ptr, ptr %42, align 8
  %44 = getelementptr inbounds nuw %struct.IndexVacuumInfo, ptr %9, i32 0, i32 7
  store ptr %43, ptr %44, align 8
  %45 = load ptr, ptr %5, align 8
  %46 = getelementptr inbounds nuw %struct.RelationData, ptr %45, i32 0, i32 13
  %47 = load ptr, ptr %46, align 8
  %48 = getelementptr inbounds nuw %struct.FormData_pg_class, ptr %47, i32 0, i32 1
  %49 = getelementptr inbounds nuw %struct.nameData, ptr %48, i32 0, i32 0
  %50 = getelementptr inbounds [64 x i8], ptr %49, i64 0, i64 0
  %51 = call ptr @pstrdup(ptr noundef %50)
  %52 = load ptr, ptr %4, align 8
  %53 = getelementptr inbounds nuw %struct.ParallelVacuumState, ptr %52, i32 0, i32 16
  store ptr %51, ptr %53, align 8
  %54 = load ptr, ptr %6, align 8
  %55 = getelementptr inbounds nuw %struct.PVIndStats, ptr %54, i32 0, i32 0
  %56 = load i32, ptr %55, align 8
  %57 = load ptr, ptr %4, align 8
  %58 = getelementptr inbounds nuw %struct.ParallelVacuumState, ptr %57, i32 0, i32 17
  store i32 %56, ptr %58, align 8
  %59 = load ptr, ptr %6, align 8
  %60 = getelementptr inbounds nuw %struct.PVIndStats, ptr %59, i32 0, i32 0
  %61 = load i32, ptr %60, align 8
  switch i32 %61, label %75 [
    i32 1, label %62
    i32 2, label %72
  ]

62:                                               ; preds = %17
  %63 = load ptr, ptr %7, align 8
  %64 = load ptr, ptr %4, align 8
  %65 = getelementptr inbounds nuw %struct.ParallelVacuumState, ptr %64, i32 0, i32 6
  %66 = load ptr, ptr %65, align 8
  %67 = load ptr, ptr %4, align 8
  %68 = getelementptr inbounds nuw %struct.ParallelVacuumState, ptr %67, i32 0, i32 4
  %69 = load ptr, ptr %68, align 8
  %70 = getelementptr inbounds nuw %struct.PVShared, ptr %69, i32 0, i32 12
  %71 = call ptr @vac_bulkdel_one_index(ptr noundef %9, ptr noundef %63, ptr noundef %66, ptr noundef %70)
  store ptr %71, ptr %8, align 8
  br label %95

72:                                               ; preds = %17
  %73 = load ptr, ptr %7, align 8
  %74 = call ptr @vac_cleanup_one_index(ptr noundef %9, ptr noundef %73)
  store ptr %74, ptr %8, align 8
  br label %95

75:                                               ; preds = %17
  br label %76

76:                                               ; preds = %75
  br i1 true, label %77, label %79

77:                                               ; preds = %76
  %78 = call zeroext i1 @errstart_cold(i32 noundef 21, ptr noundef null) #11
  br i1 %78, label %81, label %92

79:                                               ; preds = %76
  %80 = call zeroext i1 @errstart(i32 noundef 21, ptr noundef null)
  br i1 %80, label %81, label %92

81:                                               ; preds = %79, %77
  %82 = load ptr, ptr %6, align 8
  %83 = getelementptr inbounds nuw %struct.PVIndStats, ptr %82, i32 0, i32 0
  %84 = load i32, ptr %83, align 8
  %85 = load ptr, ptr %5, align 8
  %86 = getelementptr inbounds nuw %struct.RelationData, ptr %85, i32 0, i32 13
  %87 = load ptr, ptr %86, align 8
  %88 = getelementptr inbounds nuw %struct.FormData_pg_class, ptr %87, i32 0, i32 1
  %89 = getelementptr inbounds nuw %struct.nameData, ptr %88, i32 0, i32 0
  %90 = getelementptr inbounds [64 x i8], ptr %89, i64 0, i64 0
  %91 = call i32 (ptr, ...) @errmsg_internal(ptr noundef @.str.9, i32 noundef %84, ptr noundef %90)
  call void @errfinish(ptr noundef @.str.3, i32 noundef 904, ptr noundef @__func__.parallel_vacuum_process_one_index)
  br label %92

92:                                               ; preds = %81, %79, %77
  unreachable

93:                                               ; No predecessors!
  br label %94

94:                                               ; preds = %93
  br label %95

95:                                               ; preds = %94, %72, %62
  %96 = load ptr, ptr %6, align 8
  %97 = getelementptr inbounds nuw %struct.PVIndStats, ptr %96, i32 0, i32 2
  %98 = load i8, ptr %97, align 1, !range !6, !noundef !7
  %99 = trunc i8 %98 to i1
  br i1 %99, label %110, label %100

100:                                              ; preds = %95
  %101 = load ptr, ptr %8, align 8
  %102 = icmp ne ptr %101, null
  br i1 %102, label %103, label %110

103:                                              ; preds = %100
  %104 = load ptr, ptr %6, align 8
  %105 = getelementptr inbounds nuw %struct.PVIndStats, ptr %104, i32 0, i32 3
  %106 = load ptr, ptr %8, align 8
  call void @llvm.memcpy.p0.p0.i64(ptr align 8 %105, ptr align 8 %106, i64 40, i1 false)
  %107 = load ptr, ptr %6, align 8
  %108 = getelementptr inbounds nuw %struct.PVIndStats, ptr %107, i32 0, i32 2
  store i8 1, ptr %108, align 1
  %109 = load ptr, ptr %8, align 8
  call void @pfree(ptr noundef %109)
  br label %110

110:                                              ; preds = %103, %100, %95
  %111 = load ptr, ptr %6, align 8
  %112 = getelementptr inbounds nuw %struct.PVIndStats, ptr %111, i32 0, i32 0
  store i32 3, ptr %112, align 8
  %113 = load ptr, ptr %4, align 8
  %114 = getelementptr inbounds nuw %struct.ParallelVacuumState, ptr %113, i32 0, i32 17
  store i32 3, ptr %114, align 8
  %115 = load ptr, ptr %4, align 8
  %116 = getelementptr inbounds nuw %struct.ParallelVacuumState, ptr %115, i32 0, i32 16
  %117 = load ptr, ptr %116, align 8
  call void @pfree(ptr noundef %117)
  %118 = load ptr, ptr %4, align 8
  %119 = getelementptr inbounds nuw %struct.ParallelVacuumState, ptr %118, i32 0, i32 16
  store ptr null, ptr %119, align 8
  call void @pgstat_progress_parallel_incr_param(i32 noundef 9, i64 noundef 1)
  call void @llvm.lifetime.end.p0(i64 40, ptr %9) #9
  call void @llvm.lifetime.end.p0(i64 8, ptr %8) #9
  call void @llvm.lifetime.end.p0(i64 8, ptr %7) #9
  ret void
}