; Function Attrs: nounwind uwtable
define internal fastcc void @parallel_vacuum_process_one_index(ptr noundef captures(none) initializes((120, 132)) %0, ptr noundef %1, ptr noundef %2) unnamed_addr #0 {
  %4 = alloca %struct.IndexVacuumInfo, align 8
  call void @llvm.lifetime.start.p0(i64 40, ptr nonnull %4) #10
  %5 = getelementptr inbounds nuw i8, ptr %2, i64 5
  %6 = load i8, ptr %5, align 1, !range !4, !noundef !5
  %7 = trunc nuw i8 %6 to i1
  %8 = getelementptr inbounds nuw i8, ptr %2, i64 8
  %spec.select = select i1 %7, ptr %8, ptr null
  store ptr %1, ptr %4, align 8
  %9 = getelementptr inbounds nuw i8, ptr %0, i64 8
  %10 = load ptr, ptr %9, align 8
  %11 = getelementptr inbounds nuw i8, ptr %4, i64 8
  store ptr %10, ptr %11, align 8
  %12 = getelementptr inbounds nuw i8, ptr %4, i64 16
  store i8 0, ptr %12, align 8
  %13 = getelementptr inbounds nuw i8, ptr %4, i64 17
  store i8 0, ptr %13, align 1
  %14 = getelementptr inbounds nuw i8, ptr %4, i64 20
  store i32 13, ptr %14, align 4
  %15 = getelementptr inbounds nuw i8, ptr %0, i64 32
  %16 = load ptr, ptr %15, align 8
  %17 = getelementptr inbounds nuw i8, ptr %16, i64 24
  %18 = load i8, ptr %17, align 8, !range !4, !noundef !5
  %19 = getelementptr inbounds nuw i8, ptr %4, i64 18
  store i8 %18, ptr %19, align 2
  %20 = getelementptr inbounds nuw i8, ptr %16, i64 16
  %21 = load double, ptr %20, align 8
  %22 = getelementptr inbounds nuw i8, ptr %4, i64 24
  store double %21, ptr %22, align 8
  %23 = getelementptr inbounds nuw i8, ptr %0, i64 96
  %24 = load ptr, ptr %23, align 8
  %25 = getelementptr inbounds nuw i8, ptr %4, i64 32
  store ptr %24, ptr %25, align 8
  %26 = getelementptr inbounds nuw i8, ptr %1, i64 56
  %27 = load ptr, ptr %26, align 8
  %28 = getelementptr inbounds nuw i8, ptr %27, i64 4
  %29 = tail call ptr @pstrdup(ptr noundef nonnull %28) #10
  %30 = getelementptr inbounds nuw i8, ptr %0, i64 120
  store ptr %29, ptr %30, align 8
  %31 = load i32, ptr %2, align 8
  %32 = getelementptr inbounds nuw i8, ptr %0, i64 128
  store i32 %31, ptr %32, align 8
  switch i32 %31, label %41 [
    i32 1, label %33
    i32 2, label %39
  ]

33:                                               ; preds = %3
  %34 = getelementptr inbounds nuw i8, ptr %0, i64 48
  %35 = load ptr, ptr %34, align 8
  %36 = load ptr, ptr %15, align 8
  %37 = getelementptr inbounds nuw i8, ptr %36, i64 64
  %38 = call ptr @vac_bulkdel_one_index(ptr noundef nonnull %4, ptr noundef %spec.select, ptr noundef %35, ptr noundef nonnull %37) #10
  br label %47

39:                                               ; preds = %3
  %40 = call ptr @vac_cleanup_one_index(ptr noundef nonnull %4, ptr noundef %spec.select) #10
  br label %47

41:                                               ; preds = %3
  %42 = tail call zeroext i1 @errstart_cold(i32 noundef 21, ptr noundef null) #12
  tail call void @llvm.assume(i1 %42)
  %43 = load i32, ptr %2, align 8
  %44 = load ptr, ptr %26, align 8
  %45 = getelementptr inbounds nuw i8, ptr %44, i64 4
  %46 = tail call i32 (ptr, ...) @errmsg_internal(ptr noundef nonnull @.str.9, i32 noundef %43, ptr noundef nonnull %45) #10
  tail call void @errfinish(ptr noundef nonnull @.str.3, i32 noundef 904, ptr noundef nonnull @__func__.parallel_vacuum_process_one_index) #10
  unreachable

47:                                               ; preds = %39, %33
  %.0 = phi ptr [ %40, %39 ], [ %38, %33 ]
  %48 = load i8, ptr %5, align 1, !range !4, !noundef !5
  %49 = trunc nuw i8 %48 to i1
  %50 = icmp eq ptr %.0, null
  %or.cond.not = select i1 %49, i1 true, i1 %50
  br i1 %or.cond.not, label %52, label %51

51:                                               ; preds = %47
  call void @llvm.memcpy.p0.p0.i64(ptr noundef nonnull align 8 dereferenceable(40) %8, ptr noundef nonnull align 8 dereferenceable(40) %.0, i64 40, i1 false)
  store i8 1, ptr %5, align 1
  call void @pfree(ptr noundef nonnull %.0) #10
  br label %52

52:                                               ; preds = %51, %47
  store i32 3, ptr %2, align 8
  store i32 3, ptr %32, align 8
  %53 = load ptr, ptr %30, align 8
  call void @pfree(ptr noundef %53) #10
  store ptr null, ptr %30, align 8
  call void @pgstat_progress_parallel_incr_param(i32 noundef 9, i64 noundef 1) #10
  call void @llvm.lifetime.end.p0(i64 40, ptr nonnull %4) #10
  ret void
}